target datalayout = "e-m:e-p270:32:32-p271:32:32-p272:64:64-i64:64-i128:128-f80:128-n8:16:32:64-S128"
target triple = "x86_64-pc-linux-gnu"

%struct.Cof_Man_t_ = type { ptr, ptr, ptr, i32, i32, i32, ptr, i32, ptr, i32 }
%struct.Cof_Obj_t_ = type { i32, i32, i32, i32, i32, i32, [0 x %struct.Cof_Fan_t_] }
%struct.Cof_Fan_t_ = type { i32 }

; Function Attrs: inlinehint nounwind uwtable
define internal ptr @Cof_ObjFanin(ptr noundef %0, i32 noundef %1) #3 {
  %3 = alloca ptr, align 8
  %4 = alloca i32, align 4
  store ptr %0, ptr %3, align 8, !tbaa !42
  store i32 %1, ptr %4, align 4, !tbaa !8
  %5 = load ptr, ptr %3, align 8, !tbaa !42
  %6 = load ptr, ptr %3, align 8, !tbaa !42
  %7 = getelementptr inbounds nuw %struct.Cof_Obj_t_, ptr %6, i32 0, i32 6
  %8 = load i32, ptr %4, align 4, !tbaa !8
  %9 = sext i32 %8 to i64
  %10 = getelementptr inbounds [0 x %struct.Cof_Fan_t_], ptr %7, i64 0, i64 %9
  %11 = load i32, ptr %10, align 4
  %12 = and i32 %11, 2147483647
  %13 = sext i32 %12 to i64
  %14 = sub i64 0, %13
  %15 = getelementptr inbounds i32, ptr %5, i64 %14
  ret ptr %15
}

; Function Attrs: inlinehint nounwind uwtable
define internal i32 @Cof_ObjIsCo(ptr noundef %0) #3 {
  %2 = alloca ptr, align 8
  store ptr %0, ptr %2, align 8, !tbaa !42
  %3 = load ptr, ptr %2, align 8, !tbaa !42
  %4 = load i32, ptr %3, align 4
  %5 = and i32 %4, 1
  %6 = icmp ne i32 %5, 0
  br i1 %6, label %7, label %13

7:                                                ; preds = %1
  %8 = load ptr, ptr %2, align 8, !tbaa !42
  %9 = load i32, ptr %8, align 4
  %10 = lshr i32 %9, 4
  %11 = and i32 %10, 15
  %12 = icmp eq i32 %11, 1
  br label %13

13:                                               ; preds = %7, %1
  %14 = phi i1 [ false, %1 ], [ %12, %7 ]
  %15 = zext i1 %14 to i32
  ret i32 %15
}

; Function Attrs: inlinehint nounwind uwtable
define internal void @Cof_ManIncrementTravId(ptr noundef %0) #3 {
  %2 = alloca ptr, align 8
  store ptr %0, ptr %2, align 8, !tbaa !10
  %3 = load ptr, ptr %2, align 8, !tbaa !10
  %4 = getelementptr inbounds nuw %struct.Cof_Man_t_, ptr %3, i32 0, i32 5
  %5 = load i32, ptr %4, align 8, !tbaa !63
  %6 = add nsw i32 %5, 1
  store i32 %6, ptr %4, align 8, !tbaa !63
  ret void
}

; Function Attrs: nounwind uwtable
define i32 @Cof_ManSuppSize(ptr noundef %0, ptr noundef %1, i32 noundef %2) #0 {
  %4 = alloca ptr, align 8
  %5 = alloca ptr, align 8
  %6 = alloca i32, align 4
  %7 = alloca i32, align 4
  %8 = alloca i32, align 4
  store ptr %0, ptr %4, align 8, !tbaa !10
  store ptr %1, ptr %5, align 8, !tbaa !64
  store i32 %2, ptr %6, align 4, !tbaa !8
  call void @llvm.lifetime.start.p0(i64 4, ptr %7) #13
  call void @llvm.lifetime.start.p0(i64 4, ptr %8) #13
  store i32 0, ptr %8, align 4, !tbaa !8
  %9 = load ptr, ptr %4, align 8, !tbaa !10
  call void @Cof_ManIncrementTravId(ptr noundef %9)
  store i32 0, ptr %7, align 4, !tbaa !8
  br label %10

10:                                               ; preds = %44, %3
  %11 = load i32, ptr %7, align 4, !tbaa !8
  %12 = load i32, ptr %6, align 4, !tbaa !8
  %13 = icmp slt i32 %11, %12
  br i1 %13, label %14, label %47

14:                                               ; preds = %10
  %15 = load ptr, ptr %5, align 8, !tbaa !64
  %16 = load i32, ptr %7, align 4, !tbaa !8
  %17 = sext i32 %16 to i64
  %18 = getelementptr inbounds ptr, ptr %15, i64 %17
  %19 = load ptr, ptr %18, align 8, !tbaa !42
  %20 = call i32 @Cof_ObjIsCo(ptr noundef %19)
  %21 = icmp ne i32 %20, 0
  br i1 %21, label %22, label %33

22:                                               ; preds = %14
  %23 = load ptr, ptr %4, align 8, !tbaa !10
  %24 = load ptr, ptr %5, align 8, !tbaa !64
  %25 = load i32, ptr %7, align 4, !tbaa !8
  %26 = sext i32 %25 to i64
  %27 = getelementptr inbounds ptr, ptr %24, i64 %26
  %28 = load ptr, ptr %27, align 8, !tbaa !42
  %29 = call ptr @Cof_ObjFanin(ptr noundef %28, i32 noundef 0)
  %30 = call i32 @Cof_ManSuppSize_rec(ptr noundef %23, ptr noundef %29)
  %31 = load i32, ptr %8, align 4, !tbaa !8
  %32 = add nsw i32 %31, %30
  store i32 %32, ptr %8, align 4, !tbaa !8
  br label %43

33:                                               ; preds = %14
  %34 = load ptr, ptr %4, align 8, !tbaa !10
  %35 = load ptr, ptr %5, align 8, !tbaa !64
  %36 = load i32, ptr %7, align 4, !tbaa !8
  %37 = sext i32 %36 to i64
  %38 = getelementptr inbounds ptr, ptr %35, i64 %37
  %39 = load ptr, ptr %38, align 8, !tbaa !42
  %40 = call i32 @Cof_ManSuppSize_rec(ptr noundef %34, ptr noundef %39)
  %41 = load i32, ptr %8, align 4, !tbaa !8
  %42 = add nsw i32 %41, %40
  store i32 %42, ptr %8, align 4, !tbaa !8
  br label %43

43:                                               ; preds = %33, %22
  br label %44

44:                                               ; preds = %43
  %45 = load i32, ptr %7, align 4, !tbaa !8
  %46 = add nsw i32 %45, 1
  store i32 %46, ptr %7, align 4, !tbaa !8
  br label %10, !llvm.loop !70

47:                                               ; preds = %10
  %48 = load i32, ptr %8, align 4, !tbaa !8
  call void @llvm.lifetime.end.p0(i64 4, ptr %8) #13
  call void @llvm.lifetime.end.p0(i64 4, ptr %7) #13
  ret i32 %48
}