; Function Attrs: nofree nosync nounwind memory(readwrite, inaccessiblemem: none) uwtable
define i32 @Cof_ManSuppSize(ptr noundef captures(none) %0, ptr noundef readonly captures(none) %1, i32 noundef %2) local_unnamed_addr #7 {
  %4 = getelementptr inbounds nuw i8, ptr %0, i64 32
  %5 = load i32, ptr %4, align 8, !tbaa !54
  %6 = add nsw i32 %5, 1
  store i32 %6, ptr %4, align 8, !tbaa !54
  %7 = icmp sgt i32 %2, 0
  br i1 %7, label %.lr.ph.preheader, label %._crit_edge

.lr.ph.preheader:                                 ; preds = %3
  %wide.trip.count = zext nneg i32 %2 to i64
  br label %.lr.ph

.lr.ph:                                           ; preds = %.lr.ph.preheader, %18
  %indvars.iv = phi i64 [ 0, %.lr.ph.preheader ], [ %indvars.iv.next, %18 ]
  %.016 = phi i32 [ 0, %.lr.ph.preheader ], [ %.1, %18 ]
  %8 = getelementptr inbounds nuw ptr, ptr %1, i64 %indvars.iv
  %9 = load ptr, ptr %8, align 8, !tbaa !56
  %.val = load i32, ptr %9, align 4
  %10 = and i32 %.val, 241
  %narrow.i.not = icmp eq i32 %10, 17
  br i1 %narrow.i.not, label %11, label %18

11:                                               ; preds = %.lr.ph
  %12 = getelementptr inbounds nuw i8, ptr %9, i64 24
  %13 = load i32, ptr %12, align 4
  %14 = and i32 %13, 2147483647
  %15 = zext nneg i32 %14 to i64
  %16 = sub nsw i64 0, %15
  %17 = getelementptr inbounds i32, ptr %9, i64 %16
  br label %18

18:                                               ; preds = %.lr.ph, %11
  %.sink = phi ptr [ %17, %11 ], [ %9, %.lr.ph ]
  %19 = tail call i32 @Cof_ManSuppSize_rec(ptr noundef %0, ptr noundef nonnull %.sink)
  %.1 = add nsw i32 %19, %.016
  %indvars.iv.next = add nuw nsw i64 %indvars.iv, 1
  %exitcond.not = icmp eq i64 %indvars.iv.next, %wide.trip.count
  br i1 %exitcond.not, label %._crit_edge, label %.lr.ph, !llvm.loop !62

._crit_edge:                                      ; preds = %18, %3
  %.0.lcssa = phi i32 [ 0, %3 ], [ %.1, %18 ]
  ret i32 %.0.lcssa
}